ccopy_reg
_reconstructor
p0
(cPegasos
Pegasos
p1
c__builtin__
object
p2
Ntp3
Rp4
(dp5
S'_w'
p6
(dp7
I1
F26.83178534571727
sI2
F-548.5036119711011
sI3
F-23.735810113519026
sI4
F-482.9721362229062
sI5
F-18873.581011351223
sI6
F-32041.279669762687
sI7
F255.93395252838056
sI8
F65.01547987616028
sI9
F0.515995872032822
sI10
F314.7574819401461
sI11
F-43.08565531475743
sI12
F77.14138286893638
sI13
F614.6388028895684
sI14
F-100.94427244582006
sI15
F-432.5464396284789
sI16
F335.1160990712063
sI17
F865.5417956656269
sI18
F-934.909700722398
sI19
F-131.83694530443668
sI20
F-101.3931888544878
sI21
F-421.3106295149632
sI22
F-66494.58204334219
sI23
F-26687.30650154796
sI24
F60.37151702786265
sI25
F55.9855521155826
sI26
F-114.03508771929647
sI27
F-13.673890608874732
sI28
F-205.62435500515778
sI29
F263.9318885448937
sI30
F556.4654282765736
sI31
F50.281217750257724
sI32
F91.6898864809073
sI33
F733.9654282765704
sI34
F-60.761093911248004
sI35
F-824.8890608875149
sI36
F9.112487100103072
sI37
F264.7058823529391
sI38
F-34.82972136222876
sI39
F10.061919504644086
sI40
F-112.74509803921569
ssS'_Lambda'
p8
F0.0001
sS'_iterations'
p9
I10
sb.