ccopy_reg
_reconstructor
p0
(cPegasos
Pegasos
p1
c__builtin__
object
p2
Ntp3
Rp4
(dp5
S'_w'
p6
(dp7
I1
F43.85964912280672
sI2
F-217.750257997931
sI3
F-68.62745098039235
sI4
F-10.83591331269282
sI5
F-38489.938080493244
sI6
F-9734.77812177519
sI7
F309.33952528379155
sI8
F139.0608875128982
sI9
F5.41795665634686
sI10
F299.01960784313536
sI11
F76.3673890608874
sI12
F178.018575851394
sI13
F673.9060887512842
sI14
F-720.8436532507699
sI15
F259.2234262125904
sI16
F244.86326109390967
sI17
F584.5743034055635
sI18
F-688.3875128998972
sI19
F-524.5098039215683
sI20
F-34.82972136222895
sI21
F-198.14241486068164
sI22
F-107300.82559339951
sI23
F-29532.249742001644
sI24
F23.219814241486443
sI25
F178.53457172342442
sI26
F-77.91537667698626
sI27
F80.23735810113381
sI28
F-192.98245614035113
sI29
F862.7450980392126
sI30
F430.35087719297326
sI31
F-524.1253869969034
sI32
F-37.85087719298336
sI33
F1186.8911248709917
sI34
F380.51857585138833
sI35
F-888.9602683178464
sI36
F16.295149638802698
sI37
F-23.993808049536
sI38
F-257.22394220846326
sI39
F-166.4086687306511
sI40
F-103.19917440660385
ssS'_Lambda'
p8
F0.0001
sS'_iterations'
p9
I10
sb.