ccopy_reg
_reconstructor
p0
(cPegasos
Pegasos
p1
c__builtin__
object
p2
Ntp3
Rp4
(dp5
S'_w'
p6
(dp7
I1
F34.57172342621225
sI2
F-402.4767801857538
sI3
F-48.245614035088266
sI4
F-163.57069143446634
sI5
F-8560.88751290115
sI6
F-6241.744066046775
sI7
F399.12280701754526
sI8
F51.08359133126811
sI9
F-46.95562435500445
sI10
F381.5789473684198
sI11
F-108.61713106295153
sI12
F104.74716202270037
sI13
F821.3054695562336
sI14
F-849.1408668730508
sI15
F-107.13880288957557
sI16
F1132.195562435485
sI17
F412.76831785345684
sI18
F-1114.718782249733
sI19
F-253.09597523220341
sI20
F39.215686274508215
sI21
F-376.6769865841074
sI22
F-6525.799793598247
sI23
F-24108.875128999112
sI24
F104.48916408668563
sI25
F90.29927760578073
sI26
F-120.48503611971236
sI27
F125.38699690402454
sI28
F-269.8658410732733
sI29
F480.90815273477347
sI30
F-31.32352941176703
sI31
F-104.40402476780763
sI32
F-241.05521155830678
sI33
F1517.5825593395086
sI34
F240.03869969039653
sI35
F-938.4236326109343
sI36
F16.816305469556056
sI37
F177.50257997935842
sI38
F-215.17027863777216
sI39
F-76.6253869969028
sI40
F-175.95459236326067
ssS'_Lambda'
p8
F0.0001
sS'_iterations'
p9
I10
sb.