ccopy_reg
_reconstructor
p0
(cPegasos
Pegasos
p1
c__builtin__
object
p2
Ntp3
Rp4
(dp5
S'_w'
p6
(dp7
I1
F35.345717234262004
sI2
F-629.7729618163063
sI3
F-59.85552115583059
sI4
F-328.68937048503676
sI5
F-17882.352941176076
sI6
F-9709.75232198157
sI7
F76.88338493292011
sI8
F4.385964912280788
sI9
F-97.52321981424033
sI10
F247.67801857584902
sI11
F-103.97316821465455
sI12
F2.321981424148421
sI13
F706.9814241486105
sI14
F-1030.701754385969
sI15
F-232.523219814236
sI16
F1018.5655314757319
sI17
F169.36274509803832
sI18
F-1165.8617131063008
sI19
F-556.5015479876106
sI20
F29.153766769865545
sI21
F-356.81114551083493
sI22
F-48048.245614039966
sI23
F-27847.00722394198
sI24
F149.12280701754406
sI25
F89.78328173374541
sI26
F-140.86687306501432
sI27
F-10.835913312694037
sI28
F-300.30959752321735
sI29
F318.885448916407
sI30
F1100.061919504634
sI31
F-688.485552115579
sI32
F-480.22445820432876
sI33
F678.1088751290025
sI34
F284.9922600619161
sI35
F-1267.4019607843213
sI36
F2.1207430340557494
sI37
F-31.991744066047524
sI38
F-261.8679050567605
sI39
F-199.948400412796
sI40
F-163.31269349845064
ssS'_Lambda'
p8
F0.0001
sS'_iterations'
p9
I10
sb.