ccopy_reg
_reconstructor
p0
(cPegasos
Pegasos
p1
c__builtin__
object
p2
Ntp3
Rp4
(dp5
S'_w'
p6
(dp7
I1
F27.347781217750043
sI2
F-567.853457172333
sI3
F-3.095975232198085
sI4
F-314.75748194014324
sI5
F-9469.040247678115
sI6
F-49541.53766769947
sI7
F-16.511867905055695
sI8
F118.93704850361108
sI9
F-48.76160990712004
sI10
F423.63261093910955
sI11
F-29.4117647058822
sI12
F-13.67389060887509
sI13
F811.166150670795
sI14
F-177.4561403508729
sI15
F-184.78328173374598
sI16
F971.4602683178487
sI17
F107.19298245613889
sI18
F-1233.5964912280629
sI19
F-280.7017543859631
sI20
F37.925696594427166
sI21
F-595.7172342621243
sI22
F-3836.171310632015
sI23
F-28657.12074303367
sI24
F-125.12899896800744
sI25
F98.81320949432323
sI26
F-4.385964912280358
sI27
F13.157894736842222
sI28
F-214.39628482971938
sI29
F-774.2518059855498
sI30
F385.78947368421194
sI31
F60.954592363261455
sI32
F236.0629514963857
sI33
F980.7739938080427
sI34
F28.846749226006132
sI35
F-1407.409700722393
sI36
F-2.6186790505675455
sI37
F-178.53457172342456
sI38
F-304.1795665634662
sI39
F-66.82146542827536
sI40
F-62.69349845201204
ssS'_Lambda'
p8
F0.0001
sS'_iterations'
p9
I10
sb.